target datalayout = "e-m:e-p270:32:32-p271:32:32-p272:64:64-i64:64-i128:128-f80:128-n8:16:32:64-S128"
target triple = "x86_64-pc-linux-gnu"

@l_Lean_Lsp_Ipc_readResponseAs___closed__54 = internal global ptr null, align 8

; Function Attrs: inlinehint nounwind uwtable
define internal ptr @lean_box(i64 noundef %0) #0 {
  %2 = alloca i64, align 8
  store i64 %0, ptr %2, align 8, !tbaa !4
  %3 = load i64, ptr %2, align 8, !tbaa !4
  %4 = shl i64 %3, 1
  %5 = or i64 %4, 1
  %6 = inttoptr i64 %5 to ptr
  ret ptr %6
}

; Function Attrs: inlinehint nounwind uwtable
define internal i64 @lean_unbox(ptr noundef %0) #0 {
  %2 = alloca ptr, align 8
  store ptr %0, ptr %2, align 8, !tbaa !8
  %3 = load ptr, ptr %2, align 8, !tbaa !8
  %4 = ptrtoint ptr %3 to i64
  %5 = lshr i64 %4, 1
  ret i64 %5
}

; Function Attrs: inlinehint nounwind uwtable
define internal ptr @lean_int64_to_int(i64 noundef %0) #0 {
  %2 = alloca ptr, align 8
  %3 = alloca i64, align 8
  store i64 %0, ptr %3, align 8, !tbaa !4
  %4 = load i64, ptr %3, align 8, !tbaa !4
  %5 = icmp sle i64 -2147483648, %4
  br i1 %5, label %6, label %9

6:                                                ; preds = %1
  %7 = load i64, ptr %3, align 8, !tbaa !4
  %8 = icmp sle i64 %7, 2147483647
  br label %9

9:                                                ; preds = %6, %1
  %10 = phi i1 [ false, %1 ], [ %8, %6 ]
  %11 = zext i1 %10 to i32
  %12 = sext i32 %11 to i64
  %13 = call i64 @llvm.expect.i64(i64 %12, i64 1)
  %14 = icmp ne i64 %13, 0
  br i1 %14, label %15, label %20

15:                                               ; preds = %9
  %16 = load i64, ptr %3, align 8, !tbaa !4
  %17 = trunc i64 %16 to i32
  %18 = zext i32 %17 to i64
  %19 = call ptr @lean_box(i64 noundef %18)
  store ptr %19, ptr %2, align 8
  br label %23

20:                                               ; preds = %9
  %21 = load i64, ptr %3, align 8, !tbaa !4
  %22 = call ptr @lean_big_int64_to_int(i64 noundef %21)
  store ptr %22, ptr %2, align 8
  br label %23

23:                                               ; preds = %20, %15
  %24 = load ptr, ptr %2, align 8
  ret ptr %24
}

; Function Attrs: inlinehint nounwind uwtable
define internal i64 @lean_scalar_to_int64(ptr noundef %0) #0 {
  %2 = alloca ptr, align 8
  store ptr %0, ptr %2, align 8, !tbaa !8
  %3 = load ptr, ptr %2, align 8, !tbaa !8
  %4 = call i64 @lean_unbox(ptr noundef %3)
  %5 = trunc i64 %4 to i32
  %6 = sext i32 %5 to i64
  ret i64 %6
}

; Function Attrs: alwaysinline nounwind uwtable
define internal zeroext i1 @lean_is_scalar(ptr noundef %0) #1 {
  %2 = alloca ptr, align 8
  store ptr %0, ptr %2, align 8, !tbaa !8
  %3 = load ptr, ptr %2, align 8, !tbaa !8
  %4 = ptrtoint ptr %3 to i64
  %5 = and i64 %4, 1
  %6 = icmp eq i64 %5, 1
  ret i1 %6
}

; Function Attrs: inlinehint nounwind uwtable
define internal ptr @lean_int_neg(ptr noundef %0) #0 {
  %2 = alloca ptr, align 8
  %3 = alloca ptr, align 8
  store ptr %0, ptr %3, align 8, !tbaa !8
  %4 = load ptr, ptr %3, align 8, !tbaa !8
  %5 = call zeroext i1 @lean_is_scalar(ptr noundef %4)
  %6 = zext i1 %5 to i64
  %7 = call i64 @llvm.expect.i64(i64 %6, i64 1)
  %8 = icmp ne i64 %7, 0
  br i1 %8, label %9, label %14

9:                                                ; preds = %1
  %10 = load ptr, ptr %3, align 8, !tbaa !8
  %11 = call i64 @lean_scalar_to_int64(ptr noundef %10)
  %12 = sub i64 0, %11
  %13 = call ptr @lean_int64_to_int(i64 noundef %12)
  store ptr %13, ptr %2, align 8
  br label %17

14:                                               ; preds = %1
  %15 = load ptr, ptr %3, align 8, !tbaa !8
  %16 = call ptr @lean_int_big_neg(ptr noundef %15)
  store ptr %16, ptr %2, align 8
  br label %17

17:                                               ; preds = %14, %9
  %18 = load ptr, ptr %2, align 8
  ret ptr %18
}

; Function Attrs: nounwind uwtable
define internal ptr @_init_l_Lean_Lsp_Ipc_readResponseAs___closed__55() #2 {
  %1 = alloca ptr, align 8
  %2 = alloca ptr, align 8
  br label %3

3:                                                ; preds = %0
  call void @llvm.lifetime.start.p0(i64 8, ptr %1) #7
  call void @llvm.lifetime.start.p0(i64 8, ptr %2) #7
  %4 = load ptr, ptr @l_Lean_Lsp_Ipc_readResponseAs___closed__54, align 8, !tbaa !8
  store ptr %4, ptr %1, align 8, !tbaa !8
  %5 = load ptr, ptr %1, align 8, !tbaa !8
  %6 = call ptr @lean_int_neg(ptr noundef %5)
  store ptr %6, ptr %2, align 8, !tbaa !8
  %7 = load ptr, ptr %2, align 8, !tbaa !8
  call void @llvm.lifetime.end.p0(i64 8, ptr %2) #7
  call void @llvm.lifetime.end.p0(i64 8, ptr %1) #7
  ret ptr %7
}